target datalayout = "e-m:e-p270:32:32-p271:32:32-p272:64:64-i64:64-i128:128-f80:128-n8:16:32:64-S128"
target triple = "x86_64-pc-linux-gnu"

%struct.job_descriptor = type { ptr, ptr, ptr, ptr, i16, i32, i32, ptr, ptr, ptr, ptr, i64, i64, ptr, ptr, ptr, ptr, i16, ptr, ptr, i16, ptr, i16, i32, i32, i32, ptr, ptr, i64, i32, ptr, i64, ptr, %struct.slurm_hash_t, i32, ptr, ptr, ptr, i64, i64, i32, i32, ptr, i16, i32, ptr, ptr, i16, ptr, ptr, i16, ptr, ptr, ptr, i16, ptr, ptr, ptr, i32, i32, i16, i8, ptr, i16, i8, ptr, i16, ptr, i32, i32, ptr, i16, ptr, i16, ptr, i16, ptr, i16, ptr, ptr, %struct.slurm_hash_t, i16, i32, ptr, i32, ptr, i32, i32, i32, ptr, ptr, ptr, ptr, ptr, ptr, i32, i16, i16, i16, i16, ptr, i16, i32, i32, i32, i32, i16, i16, i16, i16, i16, i16, i16, i16, i16, i16, i16, i64, i32, ptr, i32, i16, ptr, ptr, ptr, ptr, ptr, i32, ptr, i16, ptr, ptr, i16 }
%struct.slurm_hash_t = type { i8, [32 x i8] }

@global_edit_error = external global i8, align 1
@.str.44 = private unnamed_addr constant [29 x i8] c"Job %d %s can't be set to %s\00", align 1
@global_entry_changed = external global i8, align 1
@global_edit_error_msg = external global ptr, align 8

; Function Attrs: nounwind uwtable
define internal i32 @_admin_focus_out_job(ptr noundef %0, ptr noundef %1, ptr noundef %2) #0 {
  %4 = alloca ptr, align 8
  %5 = alloca ptr, align 8
  %6 = alloca ptr, align 8
  %7 = alloca ptr, align 8
  %8 = alloca i32, align 4
  %9 = alloca ptr, align 8
  store ptr %0, ptr %4, align 8
  store ptr %1, ptr %5, align 8
  store ptr %2, ptr %6, align 8
  %10 = load i8, ptr @global_entry_changed, align 1, !range !18, !noundef !19
  %11 = trunc i8 %10 to i1
  br i1 %11, label %12, label %38

12:                                               ; preds = %3
  call void @llvm.lifetime.start.p0(i64 8, ptr %7) #11
  store ptr null, ptr %7, align 8
  call void @llvm.lifetime.start.p0(i64 4, ptr %8) #11
  %13 = load ptr, ptr %4, align 8
  %14 = call i32 @gtk_entry_get_max_length(ptr noundef %13)
  store i32 %14, ptr %8, align 4
  call void @llvm.lifetime.start.p0(i64 8, ptr %9) #11
  %15 = load ptr, ptr %4, align 8
  %16 = call ptr @gtk_entry_get_text(ptr noundef %15)
  store ptr %16, ptr %9, align 8
  %17 = load i32, ptr %8, align 4
  %18 = sub nsw i32 %17, 500
  store i32 %18, ptr %8, align 4
  %19 = load ptr, ptr %6, align 8
  %20 = load ptr, ptr %9, align 8
  %21 = load i32, ptr %8, align 4
  %22 = call ptr @_set_job_msg(ptr noundef %19, ptr noundef %20, i32 noundef %21)
  store ptr %22, ptr %7, align 8
  %23 = load i8, ptr @global_edit_error, align 1, !range !18, !noundef !19
  %24 = trunc i8 %23 to i1
  br i1 %24, label %25, label %37

25:                                               ; preds = %12
  %26 = load ptr, ptr @global_edit_error_msg, align 8
  %27 = icmp ne ptr %26, null
  br i1 %27, label %28, label %30

28:                                               ; preds = %25
  %29 = load ptr, ptr @global_edit_error_msg, align 8
  call void @g_free(ptr noundef %29)
  br label %30

30:                                               ; preds = %28, %25
  %31 = load ptr, ptr %6, align 8
  %32 = getelementptr inbounds nuw %struct.job_descriptor, ptr %31, i32 0, i32 44
  %33 = load i32, ptr %32, align 4
  %34 = load ptr, ptr %7, align 8
  %35 = load ptr, ptr %9, align 8
  %36 = call noalias ptr (ptr, ...) @g_strdup_printf(ptr noundef @.str.44, i32 noundef %33, ptr noundef %34, ptr noundef %35)
  store ptr %36, ptr @global_edit_error_msg, align 8
  br label %37

37:                                               ; preds = %30, %12
  store i8 0, ptr @global_entry_changed, align 1
  call void @llvm.lifetime.end.p0(i64 8, ptr %9) #11
  call void @llvm.lifetime.end.p0(i64 4, ptr %8) #11
  call void @llvm.lifetime.end.p0(i64 8, ptr %7) #11
  br label %38

38:                                               ; preds = %37, %3
  ret i32 0
}