; Function Attrs: nounwind uwtable
define internal noundef i32 @_admin_focus_out_job(ptr noundef %0, ptr readnone captures(none) %1, ptr noundef %2) #0 {
  %4 = load i8, ptr @global_entry_changed, align 1, !range !18, !noundef !19
  %5 = trunc nuw i8 %4 to i1
  br i1 %5, label %6, label %21

6:                                                ; preds = %3
  %7 = tail call i32 @gtk_entry_get_max_length(ptr noundef %0) #16
  %8 = tail call ptr @gtk_entry_get_text(ptr noundef %0) #16
  %9 = add nsw i32 %7, -500
  %10 = tail call fastcc ptr @_set_job_msg(ptr noundef %2, ptr noundef %8, i32 noundef %9)
  %11 = load i8, ptr @global_edit_error, align 1, !range !18, !noundef !19
  %12 = trunc nuw i8 %11 to i1
  br i1 %12, label %13, label %20

13:                                               ; preds = %6
  %14 = load ptr, ptr @global_edit_error_msg, align 8
  %.not = icmp eq ptr %14, null
  br i1 %.not, label %16, label %15

15:                                               ; preds = %13
  tail call void @g_free(ptr noundef nonnull %14) #16
  br label %16

16:                                               ; preds = %15, %13
  %17 = getelementptr inbounds nuw i8, ptr %2, i64 340
  %18 = load i32, ptr %17, align 4
  %19 = tail call noalias ptr (ptr, ...) @g_strdup_printf(ptr noundef nonnull @.str.44, i32 noundef %18, ptr noundef %10, ptr noundef %8) #16
  store ptr %19, ptr @global_edit_error_msg, align 8
  br label %20

20:                                               ; preds = %16, %6
  store i8 0, ptr @global_entry_changed, align 1
  br label %21

21:                                               ; preds = %20, %3
  ret i32 0
}